target datalayout = "e-m:e-p270:32:32-p271:32:32-p272:64:64-i64:64-i128:128-f80:128-n8:16:32:64-S128"
target triple = "x86_64-pc-linux-gnu"

%struct.lua_State = type { %struct.GCRef, i8, i8, i8, i8, %struct.MRef, %struct.GCRef, ptr, ptr, %struct.MRef, %struct.MRef, %struct.GCRef, %struct.GCRef, ptr, i32 }
%struct.MRef = type { i64 }
%struct.GCRef = type { i64 }
%union.TValue = type { i64 }
%struct.GCfuncL = type { %struct.GCRef, i8, i8, i8, i8, %struct.GCRef, %struct.GCRef, %struct.MRef, [1 x %struct.GCRef] }
%struct.GCfuncC = type { %struct.GCRef, i8, i8, i8, i8, %struct.GCRef, %struct.GCRef, %struct.MRef, ptr, [1 x %union.TValue] }
%struct.GChead = type { %struct.GCRef, i8, i8, i8, i8, %struct.GCRef, %struct.GCRef, %struct.GCRef }

; Function Attrs: nounwind uwtable
define internal i32 @lj_cf_debug_upvaluejoin(ptr noundef %0) #0 {
  %2 = alloca ptr, align 8
  %3 = alloca [2 x ptr], align 16
  %4 = alloca [2 x ptr], align 16
  %5 = alloca i32, align 4
  %6 = alloca i32, align 4
  store ptr %0, ptr %2, align 8, !tbaa !4
  call void @llvm.lifetime.start.p0(i64 16, ptr %3) #8
  call void @llvm.lifetime.start.p0(i64 16, ptr %4) #8
  call void @llvm.lifetime.start.p0(i64 4, ptr %5) #8
  store i32 0, ptr %5, align 4, !tbaa !19
  br label %7

7:                                                ; preds = %65, %1
  %8 = load i32, ptr %5, align 4, !tbaa !19
  %9 = icmp slt i32 %8, 2
  br i1 %9, label %10, label %68

10:                                               ; preds = %7
  call void @llvm.lifetime.start.p0(i64 4, ptr %6) #8
  %11 = load ptr, ptr %2, align 8, !tbaa !4
  %12 = load i32, ptr %5, align 4, !tbaa !19
  %13 = mul nsw i32 2, %12
  %14 = add nsw i32 %13, 1
  %15 = call ptr @lj_lib_checkfunc(ptr noundef %11, i32 noundef %14)
  %16 = load i32, ptr %5, align 4, !tbaa !19
  %17 = sext i32 %16 to i64
  %18 = getelementptr inbounds [2 x ptr], ptr %3, i64 0, i64 %17
  store ptr %15, ptr %18, align 8, !tbaa !36
  %19 = load i32, ptr %5, align 4, !tbaa !19
  %20 = sext i32 %19 to i64
  %21 = getelementptr inbounds [2 x ptr], ptr %3, i64 0, i64 %20
  %22 = load ptr, ptr %21, align 8, !tbaa !36
  %23 = getelementptr inbounds nuw %struct.GCfuncC, ptr %22, i32 0, i32 3
  %24 = load i8, ptr %23, align 2, !tbaa !17
  %25 = zext i8 %24 to i32
  %26 = icmp eq i32 %25, 0
  br i1 %26, label %32, label %27

27:                                               ; preds = %10
  %28 = load ptr, ptr %2, align 8, !tbaa !4
  %29 = load i32, ptr %5, align 4, !tbaa !19
  %30 = mul nsw i32 2, %29
  %31 = add nsw i32 %30, 1
  call void @lj_err_arg(ptr noundef %28, i32 noundef %31, i32 noundef 607) #7
  unreachable

32:                                               ; preds = %10
  %33 = load ptr, ptr %2, align 8, !tbaa !4
  %34 = load i32, ptr %5, align 4, !tbaa !19
  %35 = mul nsw i32 2, %34
  %36 = add nsw i32 %35, 2
  %37 = call i32 @lj_lib_checkint(ptr noundef %33, i32 noundef %36)
  %38 = sub nsw i32 %37, 1
  store i32 %38, ptr %6, align 4, !tbaa !19
  %39 = load i32, ptr %6, align 4, !tbaa !19
  %40 = load i32, ptr %5, align 4, !tbaa !19
  %41 = sext i32 %40 to i64
  %42 = getelementptr inbounds [2 x ptr], ptr %3, i64 0, i64 %41
  %43 = load ptr, ptr %42, align 8, !tbaa !36
  %44 = getelementptr inbounds nuw %struct.GCfuncL, ptr %43, i32 0, i32 4
  %45 = load i8, ptr %44, align 1, !tbaa !17
  %46 = zext i8 %45 to i32
  %47 = icmp uge i32 %39, %46
  br i1 %47, label %48, label %53

48:                                               ; preds = %32
  %49 = load ptr, ptr %2, align 8, !tbaa !4
  %50 = load i32, ptr %5, align 4, !tbaa !19
  %51 = mul nsw i32 2, %50
  %52 = add nsw i32 %51, 2
  call void @lj_err_arg(ptr noundef %49, i32 noundef %52, i32 noundef 1114) #7
  unreachable

53:                                               ; preds = %32
  %54 = load i32, ptr %5, align 4, !tbaa !19
  %55 = sext i32 %54 to i64
  %56 = getelementptr inbounds [2 x ptr], ptr %3, i64 0, i64 %55
  %57 = load ptr, ptr %56, align 8, !tbaa !36
  %58 = getelementptr inbounds nuw %struct.GCfuncL, ptr %57, i32 0, i32 8
  %59 = load i32, ptr %6, align 4, !tbaa !19
  %60 = sext i32 %59 to i64
  %61 = getelementptr inbounds [1 x %struct.GCRef], ptr %58, i64 0, i64 %60
  %62 = load i32, ptr %5, align 4, !tbaa !19
  %63 = sext i32 %62 to i64
  %64 = getelementptr inbounds [2 x ptr], ptr %4, i64 0, i64 %63
  store ptr %61, ptr %64, align 8, !tbaa !38
  call void @llvm.lifetime.end.p0(i64 4, ptr %6) #8
  br label %65

65:                                               ; preds = %53
  %66 = load i32, ptr %5, align 4, !tbaa !19
  %67 = add nsw i32 %66, 1
  store i32 %67, ptr %5, align 4, !tbaa !19
  br label %7, !llvm.loop !40

68:                                               ; preds = %7
  %69 = getelementptr inbounds [2 x ptr], ptr %4, i64 0, i64 1
  %70 = load ptr, ptr %69, align 8, !tbaa !38
  %71 = getelementptr inbounds nuw %struct.GCRef, ptr %70, i32 0, i32 0
  %72 = load i64, ptr %71, align 8, !tbaa !41
  %73 = getelementptr inbounds [2 x ptr], ptr %4, i64 0, i64 0
  %74 = load ptr, ptr %73, align 16, !tbaa !38
  %75 = getelementptr inbounds nuw %struct.GCRef, ptr %74, i32 0, i32 0
  store i64 %72, ptr %75, align 8, !tbaa !41
  %76 = getelementptr inbounds [2 x ptr], ptr %4, i64 0, i64 1
  %77 = load ptr, ptr %76, align 8, !tbaa !38
  %78 = getelementptr inbounds nuw %struct.GCRef, ptr %77, i32 0, i32 0
  %79 = load i64, ptr %78, align 8, !tbaa !41
  %80 = inttoptr i64 %79 to ptr
  %81 = getelementptr inbounds nuw %struct.GChead, ptr %80, i32 0, i32 1
  %82 = load i8, ptr %81, align 8, !tbaa !17
  %83 = zext i8 %82 to i32
  %84 = and i32 %83, 3
  %85 = icmp ne i32 %84, 0
  br i1 %85, label %86, label %107

86:                                               ; preds = %68
  %87 = getelementptr inbounds [2 x ptr], ptr %3, i64 0, i64 0
  %88 = load ptr, ptr %87, align 16, !tbaa !36
  %89 = getelementptr inbounds nuw %struct.GChead, ptr %88, i32 0, i32 1
  %90 = load i8, ptr %89, align 8, !tbaa !17
  %91 = zext i8 %90 to i32
  %92 = and i32 %91, 4
  %93 = icmp ne i32 %92, 0
  br i1 %93, label %94, label %107

94:                                               ; preds = %86
  %95 = load ptr, ptr %2, align 8, !tbaa !4
  %96 = getelementptr inbounds nuw %struct.lua_State, ptr %95, i32 0, i32 5
  %97 = getelementptr inbounds nuw %struct.MRef, ptr %96, i32 0, i32 0
  %98 = load i64, ptr %97, align 8, !tbaa !16
  %99 = inttoptr i64 %98 to ptr
  %100 = getelementptr inbounds [2 x ptr], ptr %3, i64 0, i64 0
  %101 = load ptr, ptr %100, align 16, !tbaa !36
  %102 = getelementptr inbounds [2 x ptr], ptr %4, i64 0, i64 1
  %103 = load ptr, ptr %102, align 8, !tbaa !38
  %104 = getelementptr inbounds nuw %struct.GCRef, ptr %103, i32 0, i32 0
  %105 = load i64, ptr %104, align 8, !tbaa !41
  %106 = inttoptr i64 %105 to ptr
  call void @lj_gc_barrierf(ptr noundef %99, ptr noundef %101, ptr noundef %106)
  br label %107

107:                                              ; preds = %94, %86, %68
  call void @llvm.lifetime.end.p0(i64 4, ptr %5) #8
  call void @llvm.lifetime.end.p0(i64 16, ptr %4) #8
  call void @llvm.lifetime.end.p0(i64 16, ptr %3) #8
  ret i32 0
}