; Function Attrs: nounwind uwtable
define internal noundef i32 @lj_cf_debug_upvaluejoin(ptr noundef %0) #0 {
  %.sroa.043 = alloca ptr, align 16
  %.sroa.444 = alloca ptr, align 8
  %.sroa.0 = alloca ptr, align 16
  %.sroa.4 = alloca ptr, align 8
  call void @llvm.lifetime.start.p0(i64 8, ptr nonnull %.sroa.043)
  call void @llvm.lifetime.start.p0(i64 8, ptr nonnull %.sroa.444)
  call void @llvm.lifetime.start.p0(i64 8, ptr nonnull %.sroa.0)
  call void @llvm.lifetime.start.p0(i64 8, ptr nonnull %.sroa.4)
  br label %2

2:                                                ; preds = %1, %18
  %3 = phi i1 [ true, %1 ], [ false, %18 ]
  %indvars.iv.sroa.phi = phi ptr [ %.sroa.0, %1 ], [ %.sroa.4, %18 ]
  %indvars.iv.sroa.phi41 = phi ptr [ %.sroa.043, %1 ], [ %.sroa.444, %18 ]
  %indvars.iv = phi i32 [ 0, %1 ], [ 2, %18 ]
  %4 = or disjoint i32 %indvars.iv, 1
  %5 = tail call ptr @lj_lib_checkfunc(ptr noundef %0, i32 noundef %4) #10
  store ptr %5, ptr %indvars.iv.sroa.phi41, align 8, !tbaa !31
  %6 = getelementptr inbounds nuw i8, ptr %5, i64 10
  %7 = load i8, ptr %6, align 2, !tbaa !15
  %8 = icmp eq i8 %7, 0
  br i1 %8, label %10, label %9

9:                                                ; preds = %2
  tail call void @lj_err_arg(ptr noundef %0, i32 noundef %4, i32 noundef 607) #11
  unreachable

10:                                               ; preds = %2
  %11 = add nuw nsw i32 %indvars.iv, 2
  %12 = tail call i32 @lj_lib_checkint(ptr noundef %0, i32 noundef %11) #10
  %13 = add nsw i32 %12, -1
  %14 = getelementptr inbounds nuw i8, ptr %5, i64 11
  %15 = load i8, ptr %14, align 1, !tbaa !15
  %16 = zext i8 %15 to i32
  %.not19 = icmp ult i32 %13, %16
  br i1 %.not19, label %18, label %17

17:                                               ; preds = %10
  tail call void @lj_err_arg(ptr noundef %0, i32 noundef %11, i32 noundef 1114) #11
  unreachable

18:                                               ; preds = %10
  %19 = getelementptr inbounds nuw i8, ptr %5, i64 40
  %20 = zext nneg i32 %13 to i64
  %21 = getelementptr inbounds nuw [1 x %struct.GCRef], ptr %19, i64 0, i64 %20
  store ptr %21, ptr %indvars.iv.sroa.phi, align 8, !tbaa !33
  br i1 %3, label %2, label %22, !llvm.loop !35

22:                                               ; preds = %18
  %.sroa.4.0..sroa.4.8. = load ptr, ptr %.sroa.4, align 8, !tbaa !33
  %23 = load i64, ptr %.sroa.4.0..sroa.4.8., align 8, !tbaa !36
  %.sroa.0.0..sroa.0.0. = load ptr, ptr %.sroa.0, align 16, !tbaa !33
  store i64 %23, ptr %.sroa.0.0..sroa.0.0., align 8, !tbaa !36
  %24 = inttoptr i64 %23 to ptr
  %25 = getelementptr inbounds nuw i8, ptr %24, i64 8
  %26 = load i8, ptr %25, align 8, !tbaa !15
  %27 = and i8 %26, 3
  %.not = icmp eq i8 %27, 0
  br i1 %.not, label %36, label %28

28:                                               ; preds = %22
  %.sroa.043.0..sroa.043.0. = load ptr, ptr %.sroa.043, align 16, !tbaa !31
  %29 = getelementptr inbounds nuw i8, ptr %.sroa.043.0..sroa.043.0., i64 8
  %30 = load i8, ptr %29, align 8, !tbaa !15
  %31 = and i8 %30, 4
  %.not18 = icmp eq i8 %31, 0
  br i1 %.not18, label %36, label %32

32:                                               ; preds = %28
  %33 = getelementptr inbounds nuw i8, ptr %0, i64 16
  %34 = load i64, ptr %33, align 8, !tbaa !14
  %35 = inttoptr i64 %34 to ptr
  tail call void @lj_gc_barrierf(ptr noundef %35, ptr noundef nonnull %.sroa.043.0..sroa.043.0., ptr noundef nonnull %24) #10
  br label %36

36:                                               ; preds = %32, %28, %22
  call void @llvm.lifetime.end.p0(i64 8, ptr nonnull %.sroa.0)
  call void @llvm.lifetime.end.p0(i64 8, ptr nonnull %.sroa.4)
  call void @llvm.lifetime.end.p0(i64 8, ptr nonnull %.sroa.043)
  call void @llvm.lifetime.end.p0(i64 8, ptr nonnull %.sroa.444)
  ret i32 0
}